target datalayout = "e-m:e-p270:32:32-p271:32:32-p272:64:64-i64:64-i128:128-f80:128-n8:16:32:64-S128"
target triple = "x86_64-pc-linux-gnu"

%struct.pmix_list_t = type { %struct.pmix_object_t, %struct.pmix_list_item_t, i64 }
%struct.pmix_object_t = type { %union.pthread_mutex_t, ptr, i32, %struct.pmix_tma }
%union.pthread_mutex_t = type { %struct.__pthread_mutex_s }
%struct.__pthread_mutex_s = type { i32, i32, i32, i32, i32, i16, i16, %struct.__pthread_internal_list }
%struct.__pthread_internal_list = type { ptr, ptr }
%struct.pmix_tma = type { ptr, ptr, ptr, ptr, ptr, ptr, ptr, ptr }
%struct.pmix_list_item_t = type { %struct.pmix_object_t, ptr, ptr, i32 }
%struct.pmix_proc = type { [256 x i8], i32 }
%struct.prte_proc_t = type { %struct.pmix_list_item_t, %struct.pmix_proc, i32, i32, i16, i16, i32, i16, i32, i32, i32, i32, ptr, ptr, ptr, ptr, i16, %struct.pmix_list_t }

@.str.161 = private unnamed_addr constant [3 x i8] c": \00", align 1
@.str.162 = private unnamed_addr constant [6 x i8] c"ALIVE\00", align 1
@.str.163 = private unnamed_addr constant [6 x i8] c"ABORT\00", align 1
@.str.164 = private unnamed_addr constant [8 x i8] c"UPDATED\00", align 1
@.str.165 = private unnamed_addr constant [6 x i8] c"LOCAL\00", align 1
@.str.166 = private unnamed_addr constant [9 x i8] c"REPORTED\00", align 1
@.str.167 = private unnamed_addr constant [11 x i8] c"REGISTERED\00", align 1
@.str.168 = private unnamed_addr constant [13 x i8] c"DEREGISTERED\00", align 1
@.str.169 = private unnamed_addr constant [4 x i8] c"MPI\00", align 1
@.str.170 = private unnamed_addr constant [13 x i8] c"IOF-COMPLETE\00", align 1
@.str.171 = private unnamed_addr constant [8 x i8] c"WAITPID\00", align 1
@.str.172 = private unnamed_addr constant [9 x i8] c"RECORDED\00", align 1
@.str.173 = private unnamed_addr constant [11 x i8] c"DATA-IN-SM\00", align 1
@.str.174 = private unnamed_addr constant [11 x i8] c"DATA-RECVD\00", align 1
@.str.175 = private unnamed_addr constant [10 x i8] c"SM-ACCESS\00", align 1
@.str.176 = private unnamed_addr constant [11 x i8] c"TERMINATED\00", align 1

; Function Attrs: nounwind uwtable
define ptr @prte_print_proc_flags(ptr noundef %0) #0 {
  %2 = alloca ptr, align 8
  %3 = alloca ptr, align 8
  %4 = alloca ptr, align 8
  %5 = alloca ptr, align 8
  store ptr %0, ptr %2, align 8, !tbaa !96
  call void @llvm.lifetime.start.p0(i64 8, ptr %3) #11
  %6 = load ptr, ptr %2, align 8, !tbaa !96
  store ptr %6, ptr %3, align 8, !tbaa !96
  call void @llvm.lifetime.start.p0(i64 8, ptr %4) #11
  store ptr null, ptr %4, align 8, !tbaa !92
  call void @llvm.lifetime.start.p0(i64 8, ptr %5) #11
  %7 = load ptr, ptr %3, align 8, !tbaa !96
  %8 = getelementptr inbounds nuw %struct.prte_proc_t, ptr %7, i32 0, i32 1
  %9 = call ptr @prte_util_print_name_args(ptr noundef %8)
  %10 = call i32 @PMIx_Argv_append_nosize(ptr noundef %4, ptr noundef %9)
  %11 = call i32 @PMIx_Argv_append_nosize(ptr noundef %4, ptr noundef @.str.161)
  %12 = load ptr, ptr %3, align 8, !tbaa !96
  %13 = getelementptr inbounds nuw %struct.prte_proc_t, ptr %12, i32 0, i32 16
  %14 = load i16, ptr %13, align 8, !tbaa !98
  %15 = zext i16 %14 to i32
  %16 = and i32 %15, 1
  %17 = icmp ne i32 %16, 0
  br i1 %17, label %18, label %20

18:                                               ; preds = %1
  %19 = call i32 @PMIx_Argv_append_nosize(ptr noundef %4, ptr noundef @.str.162)
  br label %20

20:                                               ; preds = %18, %1
  %21 = load ptr, ptr %3, align 8, !tbaa !96
  %22 = getelementptr inbounds nuw %struct.prte_proc_t, ptr %21, i32 0, i32 16
  %23 = load i16, ptr %22, align 8, !tbaa !98
  %24 = zext i16 %23 to i32
  %25 = and i32 %24, 2
  %26 = icmp ne i32 %25, 0
  br i1 %26, label %27, label %29

27:                                               ; preds = %20
  %28 = call i32 @PMIx_Argv_append_nosize(ptr noundef %4, ptr noundef @.str.163)
  br label %29

29:                                               ; preds = %27, %20
  %30 = load ptr, ptr %3, align 8, !tbaa !96
  %31 = getelementptr inbounds nuw %struct.prte_proc_t, ptr %30, i32 0, i32 16
  %32 = load i16, ptr %31, align 8, !tbaa !98
  %33 = zext i16 %32 to i32
  %34 = and i32 %33, 4
  %35 = icmp ne i32 %34, 0
  br i1 %35, label %36, label %38

36:                                               ; preds = %29
  %37 = call i32 @PMIx_Argv_append_nosize(ptr noundef %4, ptr noundef @.str.164)
  br label %38

38:                                               ; preds = %36, %29
  %39 = load ptr, ptr %3, align 8, !tbaa !96
  %40 = getelementptr inbounds nuw %struct.prte_proc_t, ptr %39, i32 0, i32 16
  %41 = load i16, ptr %40, align 8, !tbaa !98
  %42 = zext i16 %41 to i32
  %43 = and i32 %42, 8
  %44 = icmp ne i32 %43, 0
  br i1 %44, label %45, label %47

45:                                               ; preds = %38
  %46 = call i32 @PMIx_Argv_append_nosize(ptr noundef %4, ptr noundef @.str.165)
  br label %47

47:                                               ; preds = %45, %38
  %48 = load ptr, ptr %3, align 8, !tbaa !96
  %49 = getelementptr inbounds nuw %struct.prte_proc_t, ptr %48, i32 0, i32 16
  %50 = load i16, ptr %49, align 8, !tbaa !98
  %51 = zext i16 %50 to i32
  %52 = and i32 %51, 16
  %53 = icmp ne i32 %52, 0
  br i1 %53, label %54, label %56

54:                                               ; preds = %47
  %55 = call i32 @PMIx_Argv_append_nosize(ptr noundef %4, ptr noundef @.str.166)
  br label %56

56:                                               ; preds = %54, %47
  %57 = load ptr, ptr %3, align 8, !tbaa !96
  %58 = getelementptr inbounds nuw %struct.prte_proc_t, ptr %57, i32 0, i32 16
  %59 = load i16, ptr %58, align 8, !tbaa !98
  %60 = zext i16 %59 to i32
  %61 = and i32 %60, 32
  %62 = icmp ne i32 %61, 0
  br i1 %62, label %63, label %65

63:                                               ; preds = %56
  %64 = call i32 @PMIx_Argv_append_nosize(ptr noundef %4, ptr noundef @.str.167)
  br label %65

65:                                               ; preds = %63, %56
  %66 = load ptr, ptr %3, align 8, !tbaa !96
  %67 = getelementptr inbounds nuw %struct.prte_proc_t, ptr %66, i32 0, i32 16
  %68 = load i16, ptr %67, align 8, !tbaa !98
  %69 = zext i16 %68 to i32
  %70 = and i32 %69, 64
  %71 = icmp ne i32 %70, 0
  br i1 %71, label %72, label %74

72:                                               ; preds = %65
  %73 = call i32 @PMIx_Argv_append_nosize(ptr noundef %4, ptr noundef @.str.168)
  br label %74

74:                                               ; preds = %72, %65
  %75 = load ptr, ptr %3, align 8, !tbaa !96
  %76 = getelementptr inbounds nuw %struct.prte_proc_t, ptr %75, i32 0, i32 16
  %77 = load i16, ptr %76, align 8, !tbaa !98
  %78 = zext i16 %77 to i32
  %79 = and i32 %78, 128
  %80 = icmp ne i32 %79, 0
  br i1 %80, label %81, label %83

81:                                               ; preds = %74
  %82 = call i32 @PMIx_Argv_append_nosize(ptr noundef %4, ptr noundef @.str.169)
  br label %83

83:                                               ; preds = %81, %74
  %84 = load ptr, ptr %3, align 8, !tbaa !96
  %85 = getelementptr inbounds nuw %struct.prte_proc_t, ptr %84, i32 0, i32 16
  %86 = load i16, ptr %85, align 8, !tbaa !98
  %87 = zext i16 %86 to i32
  %88 = and i32 %87, 256
  %89 = icmp ne i32 %88, 0
  br i1 %89, label %90, label %92

90:                                               ; preds = %83
  %91 = call i32 @PMIx_Argv_append_nosize(ptr noundef %4, ptr noundef @.str.170)
  br label %92

92:                                               ; preds = %90, %83
  %93 = load ptr, ptr %3, align 8, !tbaa !96
  %94 = getelementptr inbounds nuw %struct.prte_proc_t, ptr %93, i32 0, i32 16
  %95 = load i16, ptr %94, align 8, !tbaa !98
  %96 = zext i16 %95 to i32
  %97 = and i32 %96, 512
  %98 = icmp ne i32 %97, 0
  br i1 %98, label %99, label %101

99:                                               ; preds = %92
  %100 = call i32 @PMIx_Argv_append_nosize(ptr noundef %4, ptr noundef @.str.171)
  br label %101

101:                                              ; preds = %99, %92
  %102 = load ptr, ptr %3, align 8, !tbaa !96
  %103 = getelementptr inbounds nuw %struct.prte_proc_t, ptr %102, i32 0, i32 16
  %104 = load i16, ptr %103, align 8, !tbaa !98
  %105 = zext i16 %104 to i32
  %106 = and i32 %105, 1024
  %107 = icmp ne i32 %106, 0
  br i1 %107, label %108, label %110

108:                                              ; preds = %101
  %109 = call i32 @PMIx_Argv_append_nosize(ptr noundef %4, ptr noundef @.str.172)
  br label %110

110:                                              ; preds = %108, %101
  %111 = load ptr, ptr %3, align 8, !tbaa !96
  %112 = getelementptr inbounds nuw %struct.prte_proc_t, ptr %111, i32 0, i32 16
  %113 = load i16, ptr %112, align 8, !tbaa !98
  %114 = zext i16 %113 to i32
  %115 = and i32 %114, 2048
  %116 = icmp ne i32 %115, 0
  br i1 %116, label %117, label %119

117:                                              ; preds = %110
  %118 = call i32 @PMIx_Argv_append_nosize(ptr noundef %4, ptr noundef @.str.173)
  br label %119

119:                                              ; preds = %117, %110
  %120 = load ptr, ptr %3, align 8, !tbaa !96
  %121 = getelementptr inbounds nuw %struct.prte_proc_t, ptr %120, i32 0, i32 16
  %122 = load i16, ptr %121, align 8, !tbaa !98
  %123 = zext i16 %122 to i32
  %124 = and i32 %123, 4096
  %125 = icmp ne i32 %124, 0
  br i1 %125, label %126, label %128

126:                                              ; preds = %119
  %127 = call i32 @PMIx_Argv_append_nosize(ptr noundef %4, ptr noundef @.str.174)
  br label %128

128:                                              ; preds = %126, %119
  %129 = load ptr, ptr %3, align 8, !tbaa !96
  %130 = getelementptr inbounds nuw %struct.prte_proc_t, ptr %129, i32 0, i32 16
  %131 = load i16, ptr %130, align 8, !tbaa !98
  %132 = zext i16 %131 to i32
  %133 = and i32 %132, 8192
  %134 = icmp ne i32 %133, 0
  br i1 %134, label %135, label %137

135:                                              ; preds = %128
  %136 = call i32 @PMIx_Argv_append_nosize(ptr noundef %4, ptr noundef @.str.175)
  br label %137

137:                                              ; preds = %135, %128
  %138 = load ptr, ptr %3, align 8, !tbaa !96
  %139 = getelementptr inbounds nuw %struct.prte_proc_t, ptr %138, i32 0, i32 16
  %140 = load i16, ptr %139, align 8, !tbaa !98
  %141 = zext i16 %140 to i32
  %142 = and i32 %141, 16384
  %143 = icmp ne i32 %142, 0
  br i1 %143, label %144, label %146

144:                                              ; preds = %137
  %145 = call i32 @PMIx_Argv_append_nosize(ptr noundef %4, ptr noundef @.str.176)
  br label %146

146:                                              ; preds = %144, %137
  %147 = load ptr, ptr %4, align 8, !tbaa !92
  %148 = call ptr @PMIx_Argv_join(ptr noundef %147, i32 noundef 124)
  store ptr %148, ptr %5, align 8, !tbaa !85
  %149 = load ptr, ptr %4, align 8, !tbaa !92
  call void @PMIx_Argv_free(ptr noundef %149)
  %150 = load ptr, ptr %5, align 8, !tbaa !85
  call void @llvm.lifetime.end.p0(i64 8, ptr %5) #11
  call void @llvm.lifetime.end.p0(i64 8, ptr %4) #11
  call void @llvm.lifetime.end.p0(i64 8, ptr %3) #11
  ret ptr %150
}