; Function Attrs: nounwind uwtable
define ptr @prte_print_proc_flags(ptr noundef %0) local_unnamed_addr #0 {
  %2 = alloca ptr, align 8
  call void @llvm.lifetime.start.p0(i64 8, ptr nonnull %2) #13
  store ptr null, ptr %2, align 8, !tbaa !70
  %3 = getelementptr inbounds nuw i8, ptr %0, i64 144
  %4 = tail call ptr @prte_util_print_name_args(ptr noundef nonnull %3) #13
  %5 = call i32 @PMIx_Argv_append_nosize(ptr noundef nonnull %2, ptr noundef %4) #13
  %6 = call i32 @PMIx_Argv_append_nosize(ptr noundef nonnull %2, ptr noundef nonnull @.str.161) #13
  %7 = getelementptr inbounds nuw i8, ptr %0, i64 472
  %8 = load i16, ptr %7, align 8, !tbaa !74
  %9 = and i16 %8, 1
  %.not = icmp eq i16 %9, 0
  br i1 %.not, label %12, label %10

10:                                               ; preds = %1
  %11 = call i32 @PMIx_Argv_append_nosize(ptr noundef nonnull %2, ptr noundef nonnull @.str.162) #13
  %.pre = load i16, ptr %7, align 8, !tbaa !74
  br label %12

12:                                               ; preds = %10, %1
  %13 = phi i16 [ %.pre, %10 ], [ %8, %1 ]
  %14 = and i16 %13, 2
  %.not18 = icmp eq i16 %14, 0
  br i1 %.not18, label %17, label %15

15:                                               ; preds = %12
  %16 = call i32 @PMIx_Argv_append_nosize(ptr noundef nonnull %2, ptr noundef nonnull @.str.163) #13
  %.pre32 = load i16, ptr %7, align 8, !tbaa !74
  br label %17

17:                                               ; preds = %15, %12
  %18 = phi i16 [ %.pre32, %15 ], [ %13, %12 ]
  %19 = and i16 %18, 4
  %.not19 = icmp eq i16 %19, 0
  br i1 %.not19, label %22, label %20

20:                                               ; preds = %17
  %21 = call i32 @PMIx_Argv_append_nosize(ptr noundef nonnull %2, ptr noundef nonnull @.str.164) #13
  %.pre33 = load i16, ptr %7, align 8, !tbaa !74
  br label %22

22:                                               ; preds = %20, %17
  %23 = phi i16 [ %.pre33, %20 ], [ %18, %17 ]
  %24 = and i16 %23, 8
  %.not20 = icmp eq i16 %24, 0
  br i1 %.not20, label %27, label %25

25:                                               ; preds = %22
  %26 = call i32 @PMIx_Argv_append_nosize(ptr noundef nonnull %2, ptr noundef nonnull @.str.165) #13
  %.pre34 = load i16, ptr %7, align 8, !tbaa !74
  br label %27

27:                                               ; preds = %25, %22
  %28 = phi i16 [ %.pre34, %25 ], [ %23, %22 ]
  %29 = and i16 %28, 16
  %.not21 = icmp eq i16 %29, 0
  br i1 %.not21, label %32, label %30

30:                                               ; preds = %27
  %31 = call i32 @PMIx_Argv_append_nosize(ptr noundef nonnull %2, ptr noundef nonnull @.str.166) #13
  %.pre35 = load i16, ptr %7, align 8, !tbaa !74
  br label %32

32:                                               ; preds = %30, %27
  %33 = phi i16 [ %.pre35, %30 ], [ %28, %27 ]
  %34 = and i16 %33, 32
  %.not22 = icmp eq i16 %34, 0
  br i1 %.not22, label %37, label %35

35:                                               ; preds = %32
  %36 = call i32 @PMIx_Argv_append_nosize(ptr noundef nonnull %2, ptr noundef nonnull @.str.167) #13
  %.pre36 = load i16, ptr %7, align 8, !tbaa !74
  br label %37

37:                                               ; preds = %35, %32
  %38 = phi i16 [ %.pre36, %35 ], [ %33, %32 ]
  %39 = and i16 %38, 64
  %.not23 = icmp eq i16 %39, 0
  br i1 %.not23, label %42, label %40

40:                                               ; preds = %37
  %41 = call i32 @PMIx_Argv_append_nosize(ptr noundef nonnull %2, ptr noundef nonnull @.str.168) #13
  %.pre37 = load i16, ptr %7, align 8, !tbaa !74
  br label %42

42:                                               ; preds = %40, %37
  %43 = phi i16 [ %.pre37, %40 ], [ %38, %37 ]
  %44 = and i16 %43, 128
  %.not24 = icmp eq i16 %44, 0
  br i1 %.not24, label %47, label %45

45:                                               ; preds = %42
  %46 = call i32 @PMIx_Argv_append_nosize(ptr noundef nonnull %2, ptr noundef nonnull @.str.169) #13
  %.pre38 = load i16, ptr %7, align 8, !tbaa !74
  br label %47

47:                                               ; preds = %45, %42
  %48 = phi i16 [ %.pre38, %45 ], [ %43, %42 ]
  %49 = and i16 %48, 256
  %.not25 = icmp eq i16 %49, 0
  br i1 %.not25, label %52, label %50

50:                                               ; preds = %47
  %51 = call i32 @PMIx_Argv_append_nosize(ptr noundef nonnull %2, ptr noundef nonnull @.str.170) #13
  %.pre39 = load i16, ptr %7, align 8, !tbaa !74
  br label %52

52:                                               ; preds = %50, %47
  %53 = phi i16 [ %.pre39, %50 ], [ %48, %47 ]
  %54 = and i16 %53, 512
  %.not26 = icmp eq i16 %54, 0
  br i1 %.not26, label %57, label %55

55:                                               ; preds = %52
  %56 = call i32 @PMIx_Argv_append_nosize(ptr noundef nonnull %2, ptr noundef nonnull @.str.171) #13
  %.pre40 = load i16, ptr %7, align 8, !tbaa !74
  br label %57

57:                                               ; preds = %55, %52
  %58 = phi i16 [ %.pre40, %55 ], [ %53, %52 ]
  %59 = and i16 %58, 1024
  %.not27 = icmp eq i16 %59, 0
  br i1 %.not27, label %62, label %60

60:                                               ; preds = %57
  %61 = call i32 @PMIx_Argv_append_nosize(ptr noundef nonnull %2, ptr noundef nonnull @.str.172) #13
  %.pre41 = load i16, ptr %7, align 8, !tbaa !74
  br label %62

62:                                               ; preds = %60, %57
  %63 = phi i16 [ %.pre41, %60 ], [ %58, %57 ]
  %64 = and i16 %63, 2048
  %.not28 = icmp eq i16 %64, 0
  br i1 %.not28, label %67, label %65

65:                                               ; preds = %62
  %66 = call i32 @PMIx_Argv_append_nosize(ptr noundef nonnull %2, ptr noundef nonnull @.str.173) #13
  %.pre42 = load i16, ptr %7, align 8, !tbaa !74
  br label %67

67:                                               ; preds = %65, %62
  %68 = phi i16 [ %.pre42, %65 ], [ %63, %62 ]
  %69 = and i16 %68, 4096
  %.not29 = icmp eq i16 %69, 0
  br i1 %.not29, label %72, label %70

70:                                               ; preds = %67
  %71 = call i32 @PMIx_Argv_append_nosize(ptr noundef nonnull %2, ptr noundef nonnull @.str.174) #13
  %.pre43 = load i16, ptr %7, align 8, !tbaa !74
  br label %72

72:                                               ; preds = %70, %67
  %73 = phi i16 [ %.pre43, %70 ], [ %68, %67 ]
  %74 = and i16 %73, 8192
  %.not30 = icmp eq i16 %74, 0
  br i1 %.not30, label %77, label %75

75:                                               ; preds = %72
  %76 = call i32 @PMIx_Argv_append_nosize(ptr noundef nonnull %2, ptr noundef nonnull @.str.175) #13
  %.pre44 = load i16, ptr %7, align 8, !tbaa !74
  br label %77

77:                                               ; preds = %75, %72
  %78 = phi i16 [ %.pre44, %75 ], [ %73, %72 ]
  %79 = and i16 %78, 16384
  %.not31 = icmp eq i16 %79, 0
  br i1 %.not31, label %82, label %80

80:                                               ; preds = %77
  %81 = call i32 @PMIx_Argv_append_nosize(ptr noundef nonnull %2, ptr noundef nonnull @.str.176) #13
  br label %82

82:                                               ; preds = %80, %77
  %83 = load ptr, ptr %2, align 8, !tbaa !70
  %84 = call ptr @PMIx_Argv_join(ptr noundef %83, i32 noundef 124) #13
  %85 = load ptr, ptr %2, align 8, !tbaa !70
  call void @PMIx_Argv_free(ptr noundef %85) #13
  call void @llvm.lifetime.end.p0(i64 8, ptr nonnull %2) #13
  ret ptr %84
}